; Function Attrs: nounwind uwtable
define ptr @glfwGetJoystickGUID(i32 noundef %0) local_unnamed_addr #0 {
  %2 = load i32, ptr @_glfw, align 8, !tbaa !170
  %.not = icmp eq i32 %2, 0
  br i1 %.not, label %3, label %4

3:                                                ; preds = %1
  tail call void (i32, ptr, ...) @_glfwInputError(i32 noundef 65537, ptr noundef null) #12
  br label %21

4:                                                ; preds = %1
  %or.cond = icmp ugt i32 %0, 15
  br i1 %or.cond, label %5, label %6

5:                                                ; preds = %4
  tail call void (i32, ptr, ...) @_glfwInputError(i32 noundef 65539, ptr noundef nonnull @.str.403, i32 noundef %0) #12
  br label %21

6:                                                ; preds = %4
  %7 = load i32, ptr getelementptr inbounds nuw (i8, ptr @_glfw, i64 1932), align 4, !tbaa !197
  %.not.i = icmp eq i32 %7, 0
  br i1 %.not.i, label %8, label %12

8:                                                ; preds = %6
  %9 = load ptr, ptr getelementptr inbounds nuw (i8, ptr @_glfw, i64 168), align 8, !tbaa !198
  %10 = tail call i32 %9() #12
  %.not1.i = icmp eq i32 %10, 0
  br i1 %.not1.i, label %initJoysticks.exit.thread, label %12

initJoysticks.exit.thread:                        ; preds = %8
  %11 = load ptr, ptr getelementptr inbounds nuw (i8, ptr @_glfw, i64 176), align 8, !tbaa !199
  tail call void %11() #12
  br label %21

12:                                               ; preds = %8, %6
  store i32 1, ptr getelementptr inbounds nuw (i8, ptr @_glfw, i64 1932), align 4, !tbaa !197
  %13 = zext nneg i32 %0 to i64
  %14 = getelementptr inbounds nuw %struct._GLFWjoystick, ptr getelementptr inbounds nuw (i8, ptr @_glfw, i64 1936), i64 %13
  %15 = getelementptr inbounds nuw i8, ptr %14, i64 4
  %16 = load i32, ptr %15, align 4, !tbaa !63
  %.not10 = icmp eq i32 %16, 0
  br i1 %.not10, label %21, label %17

17:                                               ; preds = %12
  %18 = load ptr, ptr getelementptr inbounds nuw (i8, ptr @_glfw, i64 184), align 8, !tbaa !200
  %19 = tail call i32 %18(ptr noundef nonnull %14, i32 noundef 0) #12
  %.not11 = icmp eq i32 %19, 0
  %20 = getelementptr inbounds nuw i8, ptr %14, i64 192
  %spec.select = select i1 %.not11, ptr null, ptr %20
  br label %21

21:                                               ; preds = %initJoysticks.exit.thread, %17, %12, %5, %3
  %.0 = phi ptr [ null, %5 ], [ null, %3 ], [ null, %12 ], [ %spec.select, %17 ], [ null, %initJoysticks.exit.thread ]
  ret ptr %.0
}